target datalayout = "e-m:e-p270:32:32-p271:32:32-p272:64:64-i64:64-i128:128-f80:128-n8:16:32:64-S128"
target triple = "x86_64-pc-linux-gnu"

%"class.Imf_3_4::Attribute" = type { ptr }
%"class.Imf_3_4::TypedAttribute.0" = type { %"class.Imf_3_4::Attribute", %"class.Imath_3_2::Matrix44" }
%"class.Imath_3_2::Matrix44" = type { [4 x [4 x float]] }

@.str.2 = private unnamed_addr constant [11 x i8] c"worldToNDC\00", align 1

; Function Attrs: mustprogress uwtable
define void @_ZN7Imf_3_413addWorldToNDCERNS_6HeaderERKN9Imath_3_28Matrix44IfEE(ptr noundef nonnull align 8 dereferenceable(49) %0, ptr noundef nonnull align 4 dereferenceable(64) %1) #4 personality ptr @__gxx_personality_v0 {
  %3 = alloca ptr, align 8
  %4 = alloca ptr, align 8
  %5 = alloca %"class.Imf_3_4::TypedAttribute.0", align 8
  %6 = alloca ptr, align 8
  %7 = alloca i32, align 4
  store ptr %0, ptr %3, align 8, !tbaa !3
  store ptr %1, ptr %4, align 8, !tbaa !19
  %8 = load ptr, ptr %3, align 8, !tbaa !3
  call void @llvm.lifetime.start.p0(i64 72, ptr %5) #3
  %9 = load ptr, ptr %4, align 8, !tbaa !19
  call void @_ZN7Imf_3_414TypedAttributeIN9Imath_3_28Matrix44IfEEEC1ERKS3_(ptr noundef nonnull align 8 dereferenceable(72) %5, ptr noundef nonnull align 4 dereferenceable(64) %9)
  invoke void @_ZN7Imf_3_46Header6insertEPKcRKNS_9AttributeE(ptr noundef nonnull align 8 dereferenceable(49) %8, ptr noundef @.str.2, ptr noundef nonnull align 8 dereferenceable(8) %5)
          to label %10 unwind label %11

10:                                               ; preds = %2
  call void @_ZN7Imf_3_414TypedAttributeIN9Imath_3_28Matrix44IfEEED1Ev(ptr noundef nonnull align 8 dereferenceable(72) %5) #3
  call void @llvm.lifetime.end.p0(i64 72, ptr %5) #3
  ret void

11:                                               ; preds = %2
  %12 = landingpad { ptr, i32 }
          cleanup
  %13 = extractvalue { ptr, i32 } %12, 0
  store ptr %13, ptr %6, align 8
  %14 = extractvalue { ptr, i32 } %12, 1
  store i32 %14, ptr %7, align 4
  call void @_ZN7Imf_3_414TypedAttributeIN9Imath_3_28Matrix44IfEEED1Ev(ptr noundef nonnull align 8 dereferenceable(72) %5) #3
  call void @llvm.lifetime.end.p0(i64 72, ptr %5) #3
  br label %15

15:                                               ; preds = %11
  %16 = load ptr, ptr %6, align 8
  %17 = load i32, ptr %7, align 4
  %18 = insertvalue { ptr, i32 } poison, ptr %16, 0
  %19 = insertvalue { ptr, i32 } %18, i32 %17, 1
  resume { ptr, i32 } %19
}